; Function Attrs: mustprogress nounwind uwtable
define hidden noundef i32 @_ZNK4llvh19FoldingSetNodeIDRef11ComputeHashEv(ptr nocapture noundef nonnull readonly align 8 dereferenceable(16) %this) local_unnamed_addr #0 align 2 {
entry:
  %0 = load ptr, ptr %this, align 8
  %Size = getelementptr inbounds i8, ptr %this, i64 8
  %1 = load i64, ptr %Size, align 8
  %add.ptr = getelementptr inbounds i32, ptr %0, i64 %1
  %call.i = tail call i64 @_ZN4llvh7hashing6detail23hash_combine_range_implIKjEENSt9enable_ifIXsr16is_hashable_dataIT_EE5valueENS_9hash_codeEE4typeEPS5_S9_(ptr noundef %0, ptr noundef %add.ptr)
  %conv = trunc i64 %call.i to i32
  ret i32 %conv
}